target datalayout = "e-m:e-p270:32:32-p271:32:32-p272:64:64-i64:64-i128:128-f80:128-n8:16:32:64-S128"
target triple = "x86_64-pc-linux-gnu"

%"class.llvm::cl::Option" = type { ptr, i16, i16, i16, i16, %"class.llvm::StringRef", %"class.llvm::StringRef", %"class.llvm::StringRef", %"class.llvm::SmallVector", %"class.llvm::SmallPtrSet" }
%"class.llvm::StringRef" = type { ptr, i64 }
%"class.llvm::SmallVector" = type { %"class.llvm::SmallVectorImpl", %"struct.llvm::SmallVectorStorage" }
%"class.llvm::SmallVectorImpl" = type { %"class.llvm::SmallVectorTemplateBase" }
%"class.llvm::SmallVectorTemplateBase" = type { %"class.llvm::SmallVectorTemplateCommon" }
%"class.llvm::SmallVectorTemplateCommon" = type { %"class.llvm::SmallVectorBase" }
%"class.llvm::SmallVectorBase" = type { ptr, i32, i32 }
%"struct.llvm::SmallVectorStorage" = type { [8 x i8] }
%"class.llvm::SmallPtrSet" = type { %"class.llvm::SmallPtrSetImpl.base", [1 x ptr] }
%"class.llvm::SmallPtrSetImpl.base" = type { %"class.llvm::SmallPtrSetImplBase.base" }
%"class.llvm::SmallPtrSetImplBase.base" = type <{ ptr, ptr, i32, i32, i32 }>
%"struct.llvm::cl::GenericOptionValue" = type { ptr }
%"class.std::_Function_base" = type { %"union.std::_Any_data", ptr }
%"union.std::_Any_data" = type { %"union.std::_Nocopy_types" }
%"union.std::_Nocopy_types" = type { { i64, i64 } }
%"class.llvm::cl::opt.261" = type { %"class.llvm::cl::Option", %"class.llvm::cl::opt_storage.262", %"class.llvm::RegisterPassParser", %"class.std::function.275" }
%"class.llvm::cl::opt_storage.262" = type { ptr, %"struct.llvm::cl::OptionValue.263" }
%"struct.llvm::cl::OptionValue.263" = type { %"struct.llvm::cl::OptionValueBase.base.267", [7 x i8] }
%"struct.llvm::cl::OptionValueBase.base.267" = type { %"class.llvm::cl::OptionValueCopy.base.266" }
%"class.llvm::cl::OptionValueCopy.base.266" = type <{ %"struct.llvm::cl::GenericOptionValue", ptr, i8 }>
%"class.llvm::RegisterPassParser" = type { %"class.llvm::MachinePassRegistryListener", %"class.llvm::cl::parser.269" }
%"class.llvm::MachinePassRegistryListener" = type { ptr }
%"class.llvm::cl::parser.269" = type { %"class.llvm::cl::generic_parser_base", %"class.llvm::SmallVector.270" }
%"class.llvm::cl::generic_parser_base" = type { ptr, ptr }
%"class.llvm::SmallVector.270" = type { %"class.llvm::SmallVectorImpl.271", %"struct.llvm::SmallVectorStorage.274" }
%"class.llvm::SmallVectorImpl.271" = type { %"class.llvm::SmallVectorTemplateBase.272" }
%"class.llvm::SmallVectorTemplateBase.272" = type { %"class.llvm::SmallVectorTemplateCommon.273" }
%"class.llvm::SmallVectorTemplateCommon.273" = type { %"class.llvm::SmallVectorBase" }
%"struct.llvm::SmallVectorStorage.274" = type { [448 x i8] }
%"class.std::function.275" = type { %"class.std::_Function_base", ptr }
%"class.llvm::MachinePassRegistry" = type { ptr, ptr, ptr }

@_ZN12_GLOBAL__N_111RVVRegAllocE = internal global %"class.llvm::cl::opt.261" zeroinitializer, align 8
@_ZN4llvm20RegisterRegAllocBaseIN12_GLOBAL__N_119RVVRegisterRegAllocEE8RegistryE = internal global %"class.llvm::MachinePassRegistry" zeroinitializer, align 8

; Function Attrs: mustprogress nounwind uwtable
define linkonce_odr hidden void @_ZN4llvm19MachinePassRegistryIPFPNS_12FunctionPassEvEE10setDefaultES4_(ptr noundef nonnull align 8 dereferenceable(24) %0, ptr noundef %1) #1 comdat align 2 {
  %3 = alloca ptr, align 8
  %4 = alloca ptr, align 8
  store ptr %0, ptr %3, align 8
  store ptr %1, ptr %4, align 8
  %5 = load ptr, ptr %3, align 8
  %6 = load ptr, ptr %4, align 8
  %7 = getelementptr inbounds nuw %"class.llvm::MachinePassRegistry", ptr %5, i32 0, i32 1
  store ptr %6, ptr %7, align 8
  ret void
}

; Function Attrs: mustprogress nounwind uwtable
define linkonce_odr hidden noundef ptr @_ZNK4llvm2cl11opt_storageIPFPNS_12FunctionPassEvELb0ELb0EE8getValueEv(ptr noundef nonnull align 8 dereferenceable(32) %0) #1 comdat align 2 {
  %2 = alloca ptr, align 8
  store ptr %0, ptr %2, align 8
  %3 = load ptr, ptr %2, align 8
  %4 = getelementptr inbounds nuw %"class.llvm::cl::opt_storage.262", ptr %3, i32 0, i32 0
  %5 = load ptr, ptr %4, align 8
  ret ptr %5
}

; Function Attrs: mustprogress nounwind uwtable
define linkonce_odr hidden noundef ptr @_ZN4llvm19MachinePassRegistryIPFPNS_12FunctionPassEvEE10getDefaultEv(ptr noundef nonnull align 8 dereferenceable(24) %0) #1 comdat align 2 {
  %2 = alloca ptr, align 8
  store ptr %0, ptr %2, align 8
  %3 = load ptr, ptr %2, align 8
  %4 = getelementptr inbounds nuw %"class.llvm::MachinePassRegistry", ptr %3, i32 0, i32 1
  %5 = load ptr, ptr %4, align 8
  ret ptr %5
}

; Function Attrs: mustprogress nounwind uwtable
define internal void @_ZN4llvm20RegisterRegAllocBaseIN12_GLOBAL__N_119RVVRegisterRegAllocEE10setDefaultEPFPNS_12FunctionPassEvE(ptr noundef %0) #1 align 2 {
  %2 = alloca ptr, align 8
  store ptr %0, ptr %2, align 8
  %3 = load ptr, ptr %2, align 8
  call void @_ZN4llvm19MachinePassRegistryIPFPNS_12FunctionPassEvEE10setDefaultES4_(ptr noundef nonnull align 8 dereferenceable(24) @_ZN4llvm20RegisterRegAllocBaseIN12_GLOBAL__N_119RVVRegisterRegAllocEE8RegistryE, ptr noundef %3)
  ret void
}

; Function Attrs: mustprogress nounwind uwtable
define linkonce_odr hidden noundef ptr @_ZNK4llvm2cl11opt_storageIPFPNS_12FunctionPassEvELb0ELb0EEcvS5_Ev(ptr noundef nonnull align 8 dereferenceable(32) %0) #1 comdat align 2 {
  %2 = alloca ptr, align 8
  store ptr %0, ptr %2, align 8
  %3 = load ptr, ptr %2, align 8
  %4 = call noundef ptr @_ZNK4llvm2cl11opt_storageIPFPNS_12FunctionPassEvELb0ELb0EE8getValueEv(ptr noundef nonnull align 8 dereferenceable(32) %3)
  ret ptr %4
}

; Function Attrs: mustprogress nounwind uwtable
define internal noundef ptr @_ZN4llvm20RegisterRegAllocBaseIN12_GLOBAL__N_119RVVRegisterRegAllocEE10getDefaultEv() #1 align 2 {
  %1 = call noundef ptr @_ZN4llvm19MachinePassRegistryIPFPNS_12FunctionPassEvEE10getDefaultEv(ptr noundef nonnull align 8 dereferenceable(24) @_ZN4llvm20RegisterRegAllocBaseIN12_GLOBAL__N_119RVVRegisterRegAllocEE8RegistryE)
  ret ptr %1
}

; Function Attrs: mustprogress nounwind uwtable
define internal void @_ZN12_GLOBAL__N_141initializeDefaultRVVRegisterAllocatorOnceEv() #1 {
  %1 = alloca ptr, align 8
  %2 = call noundef ptr @_ZN4llvm20RegisterRegAllocBaseIN12_GLOBAL__N_119RVVRegisterRegAllocEE10getDefaultEv()
  store ptr %2, ptr %1, align 8
  %3 = load ptr, ptr %1, align 8
  %4 = icmp ne ptr %3, null
  br i1 %4, label %8, label %5

5:                                                ; preds = %0
  %6 = call noundef ptr @_ZNK4llvm2cl11opt_storageIPFPNS_12FunctionPassEvELb0ELb0EEcvS5_Ev(ptr noundef nonnull align 8 dereferenceable(32) getelementptr inbounds (i8, ptr @_ZN12_GLOBAL__N_111RVVRegAllocE, i64 128))
  store ptr %6, ptr %1, align 8
  %7 = call noundef ptr @_ZNK4llvm2cl11opt_storageIPFPNS_12FunctionPassEvELb0ELb0EEcvS5_Ev(ptr noundef nonnull align 8 dereferenceable(32) getelementptr inbounds (i8, ptr @_ZN12_GLOBAL__N_111RVVRegAllocE, i64 128))
  call void @_ZN4llvm20RegisterRegAllocBaseIN12_GLOBAL__N_119RVVRegisterRegAllocEE10setDefaultEPFPNS_12FunctionPassEvE(ptr noundef %7)
  br label %8

8:                                                ; preds = %5, %0
  ret void
}