; Function Attrs: mustprogress nofree norecurse nosync nounwind willreturn memory(readwrite, argmem: none, inaccessiblemem: none) uwtable
define internal void @_ZN12_GLOBAL__N_141initializeDefaultRVVRegisterAllocatorOnceEv() #15 {
  %1 = load ptr, ptr getelementptr inbounds nuw (i8, ptr @_ZN4llvm20RegisterRegAllocBaseIN12_GLOBAL__N_119RVVRegisterRegAllocEE8RegistryE, i64 8), align 8
  %.not = icmp eq ptr %1, null
  br i1 %.not, label %2, label %4

2:                                                ; preds = %0
  %3 = load ptr, ptr getelementptr inbounds (i8, ptr @_ZN12_GLOBAL__N_111RVVRegAllocE, i64 128), align 8
  store ptr %3, ptr getelementptr inbounds nuw (i8, ptr @_ZN4llvm20RegisterRegAllocBaseIN12_GLOBAL__N_119RVVRegisterRegAllocEE8RegistryE, i64 8), align 8
  br label %4

4:                                                ; preds = %2, %0
  ret void
}